target datalayout = "e-m:e-p270:32:32-p271:32:32-p272:64:64-i64:64-i128:128-f80:128-n8:16:32:64-S128"
target triple = "x86_64-pc-linux-gnu"

%struct.AVFilterContext = type { ptr, ptr, ptr, ptr, ptr, i32, ptr, ptr, i32, ptr, ptr, i32, i32, ptr, ptr, ptr, ptr, i32, ptr, i32, i32 }
%struct.XFadeContext = type { ptr, i32, i64, i64, ptr, i32, i32, i32, i64, i64, i64, i64, i32, [2 x i32], [2 x ptr], i32, [4 x i16], [4 x i16], ptr, ptr }
%struct.AVRational = type { i32, i32 }
%struct.AVFrame = type { [8 x ptr], [8 x i32], ptr, i32, i32, i32, i32, i32, %struct.AVRational, i64, i64, %struct.AVRational, i32, ptr, i32, i32, [8 x ptr], ptr, i32, ptr, i32, i32, i32, i32, i32, i32, i32, i64, ptr, i32, ptr, ptr, i64, i64, i64, i64, ptr, %struct.AVChannelLayout, i64 }
%struct.AVChannelLayout = type { i32, i32, %union.anon.1, ptr }
%union.anon.1 = type { i64 }

; Function Attrs: nounwind uwtable
define internal void @slideright16_transition(ptr noundef %0, ptr noundef %1, ptr noundef %2, ptr noundef %3, float noundef %4, i32 noundef %5, i32 noundef %6, i32 noundef %7) #1 {
  %9 = alloca ptr, align 8
  %10 = alloca ptr, align 8
  %11 = alloca ptr, align 8
  %12 = alloca ptr, align 8
  %13 = alloca float, align 4
  %14 = alloca i32, align 4
  %15 = alloca i32, align 4
  %16 = alloca i32, align 4
  %17 = alloca ptr, align 8
  %18 = alloca i32, align 4
  %19 = alloca i32, align 4
  %20 = alloca i32, align 4
  %21 = alloca i32, align 4
  %22 = alloca i32, align 4
  %23 = alloca ptr, align 8
  %24 = alloca ptr, align 8
  %25 = alloca ptr, align 8
  %26 = alloca i32, align 4
  %27 = alloca i32, align 4
  %28 = alloca i32, align 4
  %29 = alloca i32, align 4
  store ptr %0, ptr %9, align 8, !tbaa !4
  store ptr %1, ptr %10, align 8, !tbaa !36
  store ptr %2, ptr %11, align 8, !tbaa !36
  store ptr %3, ptr %12, align 8, !tbaa !36
  store float %4, ptr %13, align 4, !tbaa !90
  store i32 %5, ptr %14, align 4, !tbaa !32
  store i32 %6, ptr %15, align 4, !tbaa !32
  store i32 %7, ptr %16, align 4, !tbaa !32
  call void @llvm.lifetime.start.p0(i64 8, ptr %17) #10
  %30 = load ptr, ptr %9, align 8, !tbaa !4
  %31 = getelementptr inbounds nuw %struct.AVFilterContext, ptr %30, i32 0, i32 9
  %32 = load ptr, ptr %31, align 8, !tbaa !9
  store ptr %32, ptr %17, align 8, !tbaa !22
  call void @llvm.lifetime.start.p0(i64 4, ptr %18) #10
  %33 = load i32, ptr %15, align 4, !tbaa !32
  %34 = load i32, ptr %14, align 4, !tbaa !32
  %35 = sub nsw i32 %33, %34
  store i32 %35, ptr %18, align 4, !tbaa !32
  call void @llvm.lifetime.start.p0(i64 4, ptr %19) #10
  %36 = load ptr, ptr %12, align 8, !tbaa !36
  %37 = getelementptr inbounds nuw %struct.AVFrame, ptr %36, i32 0, i32 3
  %38 = load i32, ptr %37, align 8, !tbaa !92
  store i32 %38, ptr %19, align 4, !tbaa !32
  call void @llvm.lifetime.start.p0(i64 4, ptr %20) #10
  %39 = load float, ptr %13, align 4, !tbaa !90
  %40 = load i32, ptr %19, align 4, !tbaa !32
  %41 = sitofp i32 %40 to float
  %42 = fmul nsz float %39, %41
  %43 = fptosi float %42 to i32
  store i32 %43, ptr %20, align 4, !tbaa !32
  call void @llvm.lifetime.start.p0(i64 4, ptr %21) #10
  store i32 0, ptr %21, align 4, !tbaa !32
  br label %44

44:                                               ; preds = %189, %8
  %45 = load i32, ptr %21, align 4, !tbaa !32
  %46 = load ptr, ptr %17, align 8, !tbaa !22
  %47 = getelementptr inbounds nuw %struct.XFadeContext, ptr %46, i32 0, i32 5
  %48 = load i32, ptr %47, align 8, !tbaa !82
  %49 = icmp slt i32 %45, %48
  br i1 %49, label %51, label %50

50:                                               ; preds = %44
  store i32 2, ptr %22, align 4
  call void @llvm.lifetime.end.p0(i64 4, ptr %21) #10
  br label %192

51:                                               ; preds = %44
  call void @llvm.lifetime.start.p0(i64 8, ptr %23) #10
  %52 = load ptr, ptr %10, align 8, !tbaa !36
  %53 = getelementptr inbounds nuw %struct.AVFrame, ptr %52, i32 0, i32 0
  %54 = load i32, ptr %21, align 4, !tbaa !32
  %55 = sext i32 %54 to i64
  %56 = getelementptr inbounds [8 x ptr], ptr %53, i64 0, i64 %55
  %57 = load ptr, ptr %56, align 8, !tbaa !96
  %58 = load i32, ptr %14, align 4, !tbaa !32
  %59 = load ptr, ptr %10, align 8, !tbaa !36
  %60 = getelementptr inbounds nuw %struct.AVFrame, ptr %59, i32 0, i32 1
  %61 = load i32, ptr %21, align 4, !tbaa !32
  %62 = sext i32 %61 to i64
  %63 = getelementptr inbounds [8 x i32], ptr %60, i64 0, i64 %62
  %64 = load i32, ptr %63, align 4, !tbaa !32
  %65 = mul nsw i32 %58, %64
  %66 = sext i32 %65 to i64
  %67 = getelementptr inbounds i8, ptr %57, i64 %66
  store ptr %67, ptr %23, align 8, !tbaa !101
  call void @llvm.lifetime.start.p0(i64 8, ptr %24) #10
  %68 = load ptr, ptr %11, align 8, !tbaa !36
  %69 = getelementptr inbounds nuw %struct.AVFrame, ptr %68, i32 0, i32 0
  %70 = load i32, ptr %21, align 4, !tbaa !32
  %71 = sext i32 %70 to i64
  %72 = getelementptr inbounds [8 x ptr], ptr %69, i64 0, i64 %71
  %73 = load ptr, ptr %72, align 8, !tbaa !96
  %74 = load i32, ptr %14, align 4, !tbaa !32
  %75 = load ptr, ptr %11, align 8, !tbaa !36
  %76 = getelementptr inbounds nuw %struct.AVFrame, ptr %75, i32 0, i32 1
  %77 = load i32, ptr %21, align 4, !tbaa !32
  %78 = sext i32 %77 to i64
  %79 = getelementptr inbounds [8 x i32], ptr %76, i64 0, i64 %78
  %80 = load i32, ptr %79, align 4, !tbaa !32
  %81 = mul nsw i32 %74, %80
  %82 = sext i32 %81 to i64
  %83 = getelementptr inbounds i8, ptr %73, i64 %82
  store ptr %83, ptr %24, align 8, !tbaa !101
  call void @llvm.lifetime.start.p0(i64 8, ptr %25) #10
  %84 = load ptr, ptr %12, align 8, !tbaa !36
  %85 = getelementptr inbounds nuw %struct.AVFrame, ptr %84, i32 0, i32 0
  %86 = load i32, ptr %21, align 4, !tbaa !32
  %87 = sext i32 %86 to i64
  %88 = getelementptr inbounds [8 x ptr], ptr %85, i64 0, i64 %87
  %89 = load ptr, ptr %88, align 8, !tbaa !96
  %90 = load i32, ptr %14, align 4, !tbaa !32
  %91 = load ptr, ptr %12, align 8, !tbaa !36
  %92 = getelementptr inbounds nuw %struct.AVFrame, ptr %91, i32 0, i32 1
  %93 = load i32, ptr %21, align 4, !tbaa !32
  %94 = sext i32 %93 to i64
  %95 = getelementptr inbounds [8 x i32], ptr %92, i64 0, i64 %94
  %96 = load i32, ptr %95, align 4, !tbaa !32
  %97 = mul nsw i32 %90, %96
  %98 = sext i32 %97 to i64
  %99 = getelementptr inbounds i8, ptr %89, i64 %98
  store ptr %99, ptr %25, align 8, !tbaa !101
  call void @llvm.lifetime.start.p0(i64 4, ptr %26) #10
  store i32 0, ptr %26, align 4, !tbaa !32
  br label %100

100:                                              ; preds = %185, %51
  %101 = load i32, ptr %26, align 4, !tbaa !32
  %102 = load i32, ptr %18, align 4, !tbaa !32
  %103 = icmp slt i32 %101, %102
  br i1 %103, label %105, label %104

104:                                              ; preds = %100
  store i32 5, ptr %22, align 4
  call void @llvm.lifetime.end.p0(i64 4, ptr %26) #10
  br label %188

105:                                              ; preds = %100
  call void @llvm.lifetime.start.p0(i64 4, ptr %27) #10
  store i32 0, ptr %27, align 4, !tbaa !32
  br label %106

106:                                              ; preds = %151, %105
  %107 = load i32, ptr %27, align 4, !tbaa !32
  %108 = load i32, ptr %19, align 4, !tbaa !32
  %109 = icmp slt i32 %107, %108
  br i1 %109, label %111, label %110

110:                                              ; preds = %106
  store i32 8, ptr %22, align 4
  call void @llvm.lifetime.end.p0(i64 4, ptr %27) #10
  br label %154

111:                                              ; preds = %106
  call void @llvm.lifetime.start.p0(i64 4, ptr %28) #10
  %112 = load i32, ptr %20, align 4, !tbaa !32
  %113 = load i32, ptr %27, align 4, !tbaa !32
  %114 = add nsw i32 %112, %113
  store i32 %114, ptr %28, align 4, !tbaa !32
  call void @llvm.lifetime.start.p0(i64 4, ptr %29) #10
  %115 = load i32, ptr %28, align 4, !tbaa !32
  %116 = load i32, ptr %19, align 4, !tbaa !32
  %117 = srem i32 %115, %116
  %118 = load i32, ptr %19, align 4, !tbaa !32
  %119 = load i32, ptr %28, align 4, !tbaa !32
  %120 = icmp slt i32 %119, 0
  %121 = zext i1 %120 to i32
  %122 = mul nsw i32 %118, %121
  %123 = add nsw i32 %117, %122
  store i32 %123, ptr %29, align 4, !tbaa !32
  %124 = load i32, ptr %28, align 4, !tbaa !32
  %125 = icmp sge i32 %124, 0
  br i1 %125, label %126, label %137

126:                                              ; preds = %111
  %127 = load i32, ptr %28, align 4, !tbaa !32
  %128 = load i32, ptr %19, align 4, !tbaa !32
  %129 = icmp slt i32 %127, %128
  br i1 %129, label %130, label %137

130:                                              ; preds = %126
  %131 = load ptr, ptr %24, align 8, !tbaa !101
  %132 = load i32, ptr %29, align 4, !tbaa !32
  %133 = sext i32 %132 to i64
  %134 = getelementptr inbounds i16, ptr %131, i64 %133
  %135 = load i16, ptr %134, align 2, !tbaa !84
  %136 = zext i16 %135 to i32
  br label %144

137:                                              ; preds = %126, %111
  %138 = load ptr, ptr %23, align 8, !tbaa !101
  %139 = load i32, ptr %29, align 4, !tbaa !32
  %140 = sext i32 %139 to i64
  %141 = getelementptr inbounds i16, ptr %138, i64 %140
  %142 = load i16, ptr %141, align 2, !tbaa !84
  %143 = zext i16 %142 to i32
  br label %144

144:                                              ; preds = %137, %130
  %145 = phi i32 [ %136, %130 ], [ %143, %137 ]
  %146 = trunc i32 %145 to i16
  %147 = load ptr, ptr %25, align 8, !tbaa !101
  %148 = load i32, ptr %27, align 4, !tbaa !32
  %149 = sext i32 %148 to i64
  %150 = getelementptr inbounds i16, ptr %147, i64 %149
  store i16 %146, ptr %150, align 2, !tbaa !84
  call void @llvm.lifetime.end.p0(i64 4, ptr %29) #10
  call void @llvm.lifetime.end.p0(i64 4, ptr %28) #10
  br label %151

151:                                              ; preds = %144
  %152 = load i32, ptr %27, align 4, !tbaa !32
  %153 = add nsw i32 %152, 1
  store i32 %153, ptr %27, align 4, !tbaa !32
  br label %106, !llvm.loop !145

154:                                              ; preds = %110
  %155 = load ptr, ptr %12, align 8, !tbaa !36
  %156 = getelementptr inbounds nuw %struct.AVFrame, ptr %155, i32 0, i32 1
  %157 = load i32, ptr %21, align 4, !tbaa !32
  %158 = sext i32 %157 to i64
  %159 = getelementptr inbounds [8 x i32], ptr %156, i64 0, i64 %158
  %160 = load i32, ptr %159, align 4, !tbaa !32
  %161 = sdiv i32 %160, 2
  %162 = load ptr, ptr %25, align 8, !tbaa !101
  %163 = sext i32 %161 to i64
  %164 = getelementptr inbounds i16, ptr %162, i64 %163
  store ptr %164, ptr %25, align 8, !tbaa !101
  %165 = load ptr, ptr %10, align 8, !tbaa !36
  %166 = getelementptr inbounds nuw %struct.AVFrame, ptr %165, i32 0, i32 1
  %167 = load i32, ptr %21, align 4, !tbaa !32
  %168 = sext i32 %167 to i64
  %169 = getelementptr inbounds [8 x i32], ptr %166, i64 0, i64 %168
  %170 = load i32, ptr %169, align 4, !tbaa !32
  %171 = sdiv i32 %170, 2
  %172 = load ptr, ptr %23, align 8, !tbaa !101
  %173 = sext i32 %171 to i64
  %174 = getelementptr inbounds i16, ptr %172, i64 %173
  store ptr %174, ptr %23, align 8, !tbaa !101
  %175 = load ptr, ptr %11, align 8, !tbaa !36
  %176 = getelementptr inbounds nuw %struct.AVFrame, ptr %175, i32 0, i32 1
  %177 = load i32, ptr %21, align 4, !tbaa !32
  %178 = sext i32 %177 to i64
  %179 = getelementptr inbounds [8 x i32], ptr %176, i64 0, i64 %178
  %180 = load i32, ptr %179, align 4, !tbaa !32
  %181 = sdiv i32 %180, 2
  %182 = load ptr, ptr %24, align 8, !tbaa !101
  %183 = sext i32 %181 to i64
  %184 = getelementptr inbounds i16, ptr %182, i64 %183
  store ptr %184, ptr %24, align 8, !tbaa !101
  br label %185

185:                                              ; preds = %154
  %186 = load i32, ptr %26, align 4, !tbaa !32
  %187 = add nsw i32 %186, 1
  store i32 %187, ptr %26, align 4, !tbaa !32
  br label %100, !llvm.loop !146

188:                                              ; preds = %104
  call void @llvm.lifetime.end.p0(i64 8, ptr %25) #10
  call void @llvm.lifetime.end.p0(i64 8, ptr %24) #10
  call void @llvm.lifetime.end.p0(i64 8, ptr %23) #10
  br label %189

189:                                              ; preds = %188
  %190 = load i32, ptr %21, align 4, !tbaa !32
  %191 = add nsw i32 %190, 1
  store i32 %191, ptr %21, align 4, !tbaa !32
  br label %44, !llvm.loop !147

192:                                              ; preds = %50
  call void @llvm.lifetime.end.p0(i64 4, ptr %20) #10
  call void @llvm.lifetime.end.p0(i64 4, ptr %19) #10
  call void @llvm.lifetime.end.p0(i64 4, ptr %18) #10
  call void @llvm.lifetime.end.p0(i64 8, ptr %17) #10
  ret void
}