; Function Attrs: nofree norecurse nosync nounwind memory(readwrite, inaccessiblemem: none) uwtable
define internal void @slideright16_transition(ptr noundef readonly captures(none) %0, ptr noundef readonly captures(none) %1, ptr noundef readonly captures(none) %2, ptr noundef readonly captures(none) %3, float noundef %4, i32 noundef %5, i32 noundef %6, i32 %7) #6 {
  %9 = getelementptr inbounds nuw i8, ptr %0, i64 72
  %10 = load ptr, ptr %9, align 8, !tbaa !4
  %11 = sub i32 %6, %5
  %12 = getelementptr inbounds nuw i8, ptr %3, i64 104
  %13 = load i32, ptr %12, align 8, !tbaa !85
  %14 = sitofp i32 %13 to float
  %15 = fmul nsz float %4, %14
  %16 = fptosi float %15 to i32
  %17 = getelementptr inbounds nuw i8, ptr %10, i64 40
  %18 = load i32, ptr %17, align 8, !tbaa !77
  %19 = icmp sgt i32 %18, 0
  br i1 %19, label %.lr.ph, label %._crit_edge

.lr.ph:                                           ; preds = %8
  %20 = getelementptr inbounds nuw i8, ptr %1, i64 64
  %21 = getelementptr inbounds nuw i8, ptr %2, i64 64
  %22 = getelementptr inbounds nuw i8, ptr %3, i64 64
  %23 = icmp sgt i32 %11, 0
  %24 = icmp sgt i32 %13, 0
  %or.cond = select i1 %23, i1 %24, i1 false
  br i1 %or.cond, label %.preheader.lr.ph.us.us.preheader, label %._crit_edge

.preheader.lr.ph.us.us.preheader:                 ; preds = %.lr.ph
  %25 = sext i32 %16 to i64
  %26 = zext nneg i32 %13 to i64
  %wide.trip.count82 = zext nneg i32 %18 to i64
  %wide.trip.count = zext nneg i32 %13 to i64
  br label %.preheader.lr.ph.us.us

.preheader.lr.ph.us.us:                           ; preds = %.preheader.lr.ph.us.us.preheader, %._crit_edge66.split.us.us.us
  %indvars.iv79 = phi i64 [ 0, %.preheader.lr.ph.us.us.preheader ], [ %indvars.iv.next80, %._crit_edge66.split.us.us.us ]
  %27 = getelementptr inbounds nuw [8 x ptr], ptr %1, i64 0, i64 %indvars.iv79
  %28 = load ptr, ptr %27, align 8, !tbaa !89
  %29 = getelementptr inbounds nuw [8 x i32], ptr %20, i64 0, i64 %indvars.iv79
  %30 = load i32, ptr %29, align 4, !tbaa !31
  %31 = mul nsw i32 %30, %5
  %32 = sext i32 %31 to i64
  %33 = getelementptr inbounds i8, ptr %28, i64 %32
  %34 = getelementptr inbounds nuw [8 x ptr], ptr %2, i64 0, i64 %indvars.iv79
  %35 = load ptr, ptr %34, align 8, !tbaa !89
  %36 = getelementptr inbounds nuw [8 x i32], ptr %21, i64 0, i64 %indvars.iv79
  %37 = load i32, ptr %36, align 4, !tbaa !31
  %38 = mul nsw i32 %37, %5
  %39 = sext i32 %38 to i64
  %40 = getelementptr inbounds i8, ptr %35, i64 %39
  %41 = getelementptr inbounds nuw [8 x ptr], ptr %3, i64 0, i64 %indvars.iv79
  %42 = load ptr, ptr %41, align 8, !tbaa !89
  %43 = getelementptr inbounds nuw [8 x i32], ptr %22, i64 0, i64 %indvars.iv79
  %44 = load i32, ptr %43, align 4, !tbaa !31
  %45 = mul nsw i32 %44, %5
  %46 = sext i32 %45 to i64
  %47 = getelementptr inbounds i8, ptr %42, i64 %46
  %48 = sdiv i32 %44, 2
  %49 = sext i32 %48 to i64
  %50 = sdiv i32 %30, 2
  %51 = sext i32 %50 to i64
  %52 = sdiv i32 %37, 2
  %53 = sext i32 %52 to i64
  br label %.preheader.us.us.us

.preheader.us.us.us:                              ; preds = %._crit_edge.us.us.us, %.preheader.lr.ph.us.us
  %.05465.us.us.us = phi i32 [ 0, %.preheader.lr.ph.us.us ], [ %67, %._crit_edge.us.us.us ]
  %.05564.us.us.us = phi ptr [ %47, %.preheader.lr.ph.us.us ], [ %64, %._crit_edge.us.us.us ]
  %.05663.us.us.us = phi ptr [ %40, %.preheader.lr.ph.us.us ], [ %66, %._crit_edge.us.us.us ]
  %.05762.us.us.us = phi ptr [ %33, %.preheader.lr.ph.us.us ], [ %65, %._crit_edge.us.us.us ]
  br label %54

54:                                               ; preds = %54, %.preheader.us.us.us
  %indvars.iv = phi i64 [ %indvars.iv.next, %54 ], [ 0, %.preheader.us.us.us ]
  %55 = add nsw i64 %indvars.iv, %25
  %56 = trunc nsw i64 %55 to i32
  %57 = srem i32 %56, %13
  %isneg.us.us.us = icmp slt i64 %55, 0
  %58 = select i1 %isneg.us.us.us, i32 %13, i32 0
  %59 = add nsw i32 %57, %58
  %60 = icmp sgt i64 %55, -1
  %61 = icmp slt i64 %55, %26
  %or.cond.us.us.us = select i1 %60, i1 %61, i1 false
  %62 = sext i32 %59 to i64
  %.in.in.v.us.us.us = select i1 %or.cond.us.us.us, ptr %.05663.us.us.us, ptr %.05762.us.us.us
  %.in.in.us.us.us = getelementptr inbounds i16, ptr %.in.in.v.us.us.us, i64 %62
  %.in60.us.us.us = load i16, ptr %.in.in.us.us.us, align 2, !tbaa !79
  %63 = getelementptr inbounds nuw i16, ptr %.05564.us.us.us, i64 %indvars.iv
  store i16 %.in60.us.us.us, ptr %63, align 2, !tbaa !79
  %indvars.iv.next = add nuw nsw i64 %indvars.iv, 1
  %exitcond.not = icmp eq i64 %indvars.iv.next, %wide.trip.count
  br i1 %exitcond.not, label %._crit_edge.us.us.us, label %54, !llvm.loop !136

._crit_edge.us.us.us:                             ; preds = %54
  %64 = getelementptr inbounds i16, ptr %.05564.us.us.us, i64 %49
  %65 = getelementptr inbounds i16, ptr %.05762.us.us.us, i64 %51
  %66 = getelementptr inbounds i16, ptr %.05663.us.us.us, i64 %53
  %67 = add nuw nsw i32 %.05465.us.us.us, 1
  %exitcond78.not = icmp eq i32 %67, %11
  br i1 %exitcond78.not, label %._crit_edge66.split.us.us.us, label %.preheader.us.us.us, !llvm.loop !137

._crit_edge66.split.us.us.us:                     ; preds = %._crit_edge.us.us.us
  %indvars.iv.next80 = add nuw nsw i64 %indvars.iv79, 1
  %exitcond83.not = icmp eq i64 %indvars.iv.next80, %wide.trip.count82
  br i1 %exitcond83.not, label %._crit_edge, label %.preheader.lr.ph.us.us, !llvm.loop !138

._crit_edge:                                      ; preds = %._crit_edge66.split.us.us.us, %.lr.ph, %8
  ret void
}